; Function Attrs: mustprogress nounwind uwtable
define hidden void @_ZN19LIR_InsertionBuffer6appendEiP6LIR_Op(ptr noundef nonnull align 8 dereferenceable(56) %0, i32 noundef %1, ptr noundef %2) local_unnamed_addr #1 align 2 {
  %4 = getelementptr inbounds i8, ptr %0, i64 8
  %5 = load i32, ptr %4, align 8
  %6 = icmp slt i32 %5, 2
  br i1 %6, label %16, label %7

7:                                                ; preds = %3
  %8 = and i32 %5, 2147483646
  %9 = add nsw i32 %8, -2
  %10 = getelementptr inbounds i8, ptr %0, i64 16
  %11 = load ptr, ptr %10, align 8
  %12 = zext nneg i32 %9 to i64
  %13 = getelementptr inbounds i32, ptr %11, i64 %12
  %14 = load i32, ptr %13, align 4
  %15 = icmp slt i32 %14, %1
  br i1 %15, label %16, label %54

16:                                               ; preds = %7, %3
  %17 = getelementptr inbounds i8, ptr %0, i64 12
  %18 = load i32, ptr %17, align 4
  %19 = icmp eq i32 %5, %18
  br i1 %19, label %20, label %_ZN26GrowableArrayWithAllocatorIi13GrowableArrayIiEE6appendERKi.exit.i

20:                                               ; preds = %16
  %21 = add nsw i32 %5, 1
  %22 = icmp sgt i32 %5, -1
  %23 = xor i32 %5, -2147483648
  %24 = and i32 %23, %21
  %25 = icmp eq i32 %24, 0
  %26 = and i1 %22, %25
  %27 = tail call range(i32 0, 33) i32 @llvm.ctlz.i32(i32 %21, i1 true)
  %28 = sub nuw nsw i32 32, %27
  %29 = shl nuw i32 1, %28
  %.0.i.i.i.i.i = select i1 %26, i32 %21, i32 %29
  tail call void @_ZN26GrowableArrayWithAllocatorIi13GrowableArrayIiEE9expand_toEi(ptr noundef nonnull align 8 dereferenceable(16) %4, i32 noundef %.0.i.i.i.i.i)
  %.pre.i.i = load i32, ptr %4, align 8
  br label %_ZN26GrowableArrayWithAllocatorIi13GrowableArrayIiEE6appendERKi.exit.i

_ZN26GrowableArrayWithAllocatorIi13GrowableArrayIiEE6appendERKi.exit.i: ; preds = %20, %16
  %30 = phi i32 [ %.pre.i.i, %20 ], [ %5, %16 ]
  %31 = add nsw i32 %30, 1
  store i32 %31, ptr %4, align 8
  %32 = getelementptr inbounds i8, ptr %0, i64 16
  %33 = load ptr, ptr %32, align 8
  %34 = sext i32 %30 to i64
  %35 = getelementptr inbounds i32, ptr %33, i64 %34
  store i32 %1, ptr %35, align 4
  %36 = load i32, ptr %4, align 8
  %37 = load i32, ptr %17, align 4
  %38 = icmp eq i32 %36, %37
  br i1 %38, label %39, label %_ZN19LIR_InsertionBuffer10append_newEii.exit

39:                                               ; preds = %_ZN26GrowableArrayWithAllocatorIi13GrowableArrayIiEE6appendERKi.exit.i
  %40 = add nsw i32 %36, 1
  %41 = icmp sgt i32 %36, -1
  %42 = xor i32 %36, -2147483648
  %43 = and i32 %42, %40
  %44 = icmp eq i32 %43, 0
  %45 = and i1 %41, %44
  %46 = tail call range(i32 0, 33) i32 @llvm.ctlz.i32(i32 %40, i1 true)
  %47 = sub nuw nsw i32 32, %46
  %48 = shl nuw i32 1, %47
  %.0.i.i.i.i1.i = select i1 %45, i32 %40, i32 %48
  tail call void @_ZN26GrowableArrayWithAllocatorIi13GrowableArrayIiEE9expand_toEi(ptr noundef nonnull align 8 dereferenceable(16) %4, i32 noundef %.0.i.i.i.i1.i)
  %.pre.i2.i = load i32, ptr %4, align 8
  br label %_ZN19LIR_InsertionBuffer10append_newEii.exit

_ZN19LIR_InsertionBuffer10append_newEii.exit:     ; preds = %_ZN26GrowableArrayWithAllocatorIi13GrowableArrayIiEE6appendERKi.exit.i, %39
  %49 = phi i32 [ %.pre.i2.i, %39 ], [ %36, %_ZN26GrowableArrayWithAllocatorIi13GrowableArrayIiEE6appendERKi.exit.i ]
  %50 = add nsw i32 %49, 1
  store i32 %50, ptr %4, align 8
  %51 = load ptr, ptr %32, align 8
  %52 = sext i32 %49 to i64
  %53 = getelementptr inbounds i32, ptr %51, i64 %52
  store i32 1, ptr %53, align 4
  br label %60

54:                                               ; preds = %7
  %55 = or disjoint i32 %9, 1
  %56 = zext nneg i32 %55 to i64
  %57 = getelementptr inbounds i32, ptr %11, i64 %56
  %58 = load i32, ptr %57, align 4
  %59 = add nsw i32 %58, 1
  store i32 %59, ptr %57, align 4
  br label %60

60:                                               ; preds = %54, %_ZN19LIR_InsertionBuffer10append_newEii.exit
  %61 = getelementptr inbounds i8, ptr %0, i64 32
  %62 = load i32, ptr %61, align 8
  %63 = getelementptr inbounds i8, ptr %0, i64 36
  %64 = load i32, ptr %63, align 4
  %65 = icmp eq i32 %62, %64
  br i1 %65, label %66, label %_ZN26GrowableArrayWithAllocatorIP6LIR_Op13GrowableArrayIS1_EE4pushERKS1_.exit

66:                                               ; preds = %60
  %67 = add nsw i32 %62, 1
  %68 = icmp sgt i32 %62, -1
  %69 = xor i32 %62, -2147483648
  %70 = and i32 %69, %67
  %71 = icmp eq i32 %70, 0
  %72 = and i1 %68, %71
  %73 = tail call range(i32 0, 33) i32 @llvm.ctlz.i32(i32 %67, i1 true)
  %74 = sub nuw nsw i32 32, %73
  %75 = shl nuw i32 1, %74
  %.0.i.i.i.i.i6 = select i1 %72, i32 %67, i32 %75
  tail call void @_ZN26GrowableArrayWithAllocatorIP6LIR_Op13GrowableArrayIS1_EE9expand_toEi(ptr noundef nonnull align 8 dereferenceable(16) %61, i32 noundef %.0.i.i.i.i.i6)
  %.pre.i.i7 = load i32, ptr %61, align 8
  br label %_ZN26GrowableArrayWithAllocatorIP6LIR_Op13GrowableArrayIS1_EE4pushERKS1_.exit

_ZN26GrowableArrayWithAllocatorIP6LIR_Op13GrowableArrayIS1_EE4pushERKS1_.exit: ; preds = %60, %66
  %76 = phi i32 [ %.pre.i.i7, %66 ], [ %62, %60 ]
  %77 = add nsw i32 %76, 1
  store i32 %77, ptr %61, align 8
  %78 = getelementptr inbounds i8, ptr %0, i64 40
  %79 = load ptr, ptr %78, align 8
  %80 = sext i32 %76 to i64
  %81 = getelementptr inbounds ptr, ptr %79, i64 %80
  store ptr %2, ptr %81, align 8
  ret void
}